target datalayout = "e-m:e-p270:32:32-p271:32:32-p272:64:64-i64:64-i128:128-f80:128-n8:16:32:64-S128"
target triple = "x86_64-pc-linux-gnu"

%class.QFlags = type { i32 }
%class.PacketListHeader = type <{ %class.QHeaderView, i32, [4 x i8] }>
%class.QHeaderView = type { %class.QAbstractItemView }
%class.QAbstractItemView = type { %class.QAbstractScrollArea }
%class.QAbstractScrollArea = type { %class.QFrame }
%class.QFrame = type { %class.QWidget }
%class.QWidget = type { %class.QObject, %class.QPaintDevice.base, ptr }
%class.QObject = type { ptr, %class.QScopedPointer }
%class.QScopedPointer = type { ptr }
%class.QPaintDevice.base = type <{ ptr, i16 }>
%class.QFlag = type { i32 }

@_ZTV16PacketListHeader = external unnamed_addr constant { [102 x ptr], [10 x ptr] }, align 8

; Function Attrs: mustprogress nounwind uwtable
define linkonce_odr noundef i32 @_ZNK5QFlagcvjEv(ptr noundef nonnull align 4 dereferenceable(4) %0) #2 comdat align 2 {
  %2 = alloca ptr, align 8
  store ptr %0, ptr %2, align 8
  %3 = load ptr, ptr %2, align 8
  %4 = getelementptr inbounds %class.QFlag, ptr %3, i32 0, i32 0
  %5 = load i32, ptr %4, align 4
  ret i32 %5
}

; Function Attrs: mustprogress nounwind uwtable
define linkonce_odr void @_ZN6QFlagsIN2Qt13AlignmentFlagEEC2E5QFlag(ptr noundef nonnull align 4 dereferenceable(4) %0, i32 %1) unnamed_addr #2 comdat align 2 {
  %3 = alloca %class.QFlag, align 4
  %4 = alloca ptr, align 8
  %5 = getelementptr inbounds %class.QFlag, ptr %3, i32 0, i32 0
  store i32 %1, ptr %5, align 4
  store ptr %0, ptr %4, align 8
  %6 = load ptr, ptr %4, align 8
  %7 = getelementptr inbounds %class.QFlags, ptr %6, i32 0, i32 0
  %8 = call noundef i32 @_ZNK5QFlagcvjEv(ptr noundef nonnull align 4 dereferenceable(4) %3) #9
  store i32 %8, ptr %7, align 4
  ret void
}

; Function Attrs: mustprogress nounwind uwtable
define linkonce_odr void @_ZN5QFlagC2Ej(ptr noundef nonnull align 4 dereferenceable(4) %0, i32 noundef %1) unnamed_addr #2 comdat align 2 {
  %3 = alloca ptr, align 8
  %4 = alloca i32, align 4
  store ptr %0, ptr %3, align 8
  store i32 %1, ptr %4, align 4
  %5 = load ptr, ptr %3, align 8
  %6 = getelementptr inbounds %class.QFlag, ptr %5, i32 0, i32 0
  %7 = load i32, ptr %4, align 4
  store i32 %7, ptr %6, align 4
  ret void
}

; Function Attrs: mustprogress nounwind uwtable
define linkonce_odr i32 @_ZNK6QFlagsIN2Qt13AlignmentFlagEEorES1_(ptr noundef nonnull align 4 dereferenceable(4) %0, i32 noundef %1) #2 comdat align 2 {
  %3 = alloca %class.QFlags, align 4
  %4 = alloca ptr, align 8
  %5 = alloca i32, align 4
  %6 = alloca %class.QFlag, align 4
  store ptr %0, ptr %4, align 8
  store i32 %1, ptr %5, align 4
  %7 = load ptr, ptr %4, align 8
  %8 = getelementptr inbounds %class.QFlags, ptr %7, i32 0, i32 0
  %9 = load i32, ptr %8, align 4
  %10 = load i32, ptr %5, align 4
  %11 = or i32 %9, %10
  call void @_ZN5QFlagC2Ej(ptr noundef nonnull align 4 dereferenceable(4) %6, i32 noundef %11) #9
  %12 = getelementptr inbounds %class.QFlag, ptr %6, i32 0, i32 0
  %13 = load i32, ptr %12, align 4
  call void @_ZN6QFlagsIN2Qt13AlignmentFlagEEC2E5QFlag(ptr noundef nonnull align 4 dereferenceable(4) %3, i32 %13) #9
  %14 = getelementptr inbounds %class.QFlags, ptr %3, i32 0, i32 0
  %15 = load i32, ptr %14, align 4
  ret i32 %15
}

; Function Attrs: mustprogress nounwind uwtable
define linkonce_odr void @_ZN6QFlagsIN2Qt13AlignmentFlagEEC2ES1_(ptr noundef nonnull align 4 dereferenceable(4) %0, i32 noundef %1) unnamed_addr #2 comdat align 2 {
  %3 = alloca ptr, align 8
  %4 = alloca i32, align 4
  store ptr %0, ptr %3, align 8
  store i32 %1, ptr %4, align 4
  %5 = load ptr, ptr %3, align 8
  %6 = getelementptr inbounds %class.QFlags, ptr %5, i32 0, i32 0
  %7 = load i32, ptr %4, align 4
  store i32 %7, ptr %6, align 4
  ret void
}

; Function Attrs: mustprogress nounwind uwtable
define linkonce_odr i32 @_ZN2QtorENS_13AlignmentFlagES0_(i32 noundef %0, i32 noundef %1) #2 comdat {
  %3 = alloca %class.QFlags, align 4
  %4 = alloca i32, align 4
  %5 = alloca i32, align 4
  %6 = alloca %class.QFlags, align 4
  store i32 %0, ptr %4, align 4
  store i32 %1, ptr %5, align 4
  %7 = load i32, ptr %4, align 4
  call void @_ZN6QFlagsIN2Qt13AlignmentFlagEEC2ES1_(ptr noundef nonnull align 4 dereferenceable(4) %6, i32 noundef %7) #9
  %8 = load i32, ptr %5, align 4
  %9 = call i32 @_ZNK6QFlagsIN2Qt13AlignmentFlagEEorES1_(ptr noundef nonnull align 4 dereferenceable(4) %6, i32 noundef %8) #9
  %10 = getelementptr inbounds %class.QFlags, ptr %3, i32 0, i32 0
  store i32 %9, ptr %10, align 4
  %11 = getelementptr inbounds %class.QFlags, ptr %3, i32 0, i32 0
  %12 = load i32, ptr %11, align 4
  ret i32 %12
}

; Function Attrs: mustprogress uwtable
define void @_ZN16PacketListHeaderC2EN2Qt11OrientationEP7QWidget(ptr noundef nonnull align 8 dereferenceable(44) %0, i32 noundef %1, ptr noundef %2) unnamed_addr #0 align 2 personality ptr @__gxx_personality_v0 {
  %4 = alloca ptr, align 8
  %5 = alloca i32, align 4
  %6 = alloca ptr, align 8
  %7 = alloca ptr, align 8
  %8 = alloca i32, align 4
  %9 = alloca %class.QFlags, align 4
  store ptr %0, ptr %4, align 8
  store i32 %1, ptr %5, align 4
  store ptr %2, ptr %6, align 8
  %10 = load ptr, ptr %4, align 8
  %11 = load i32, ptr %5, align 4
  %12 = load ptr, ptr %6, align 8
  call void @_ZN11QHeaderViewC2EN2Qt11OrientationEP7QWidget(ptr noundef nonnull align 8 dereferenceable(40) %10, i32 noundef %11, ptr noundef %12)
  store ptr getelementptr inbounds ({ [102 x ptr], [10 x ptr] }, ptr @_ZTV16PacketListHeader, i32 0, i32 0, i32 2), ptr %10, align 8
  %13 = getelementptr inbounds i8, ptr %10, i64 16
  store ptr getelementptr inbounds ({ [102 x ptr], [10 x ptr] }, ptr @_ZTV16PacketListHeader, i32 0, i32 1, i32 2), ptr %13, align 8
  %14 = getelementptr inbounds %class.PacketListHeader, ptr %10, i32 0, i32 1
  store i32 -1, ptr %14, align 8
  invoke void @_ZN7QWidget14setAcceptDropsEb(ptr noundef nonnull align 8 dereferenceable(40) %10, i1 noundef zeroext true)
          to label %15 unwind label %23

15:                                               ; preds = %3
  invoke void @_ZN11QHeaderView18setSectionsMovableEb(ptr noundef nonnull align 8 dereferenceable(40) %10, i1 noundef zeroext true)
          to label %16 unwind label %23

16:                                               ; preds = %15
  invoke void @_ZN11QHeaderView21setStretchLastSectionEb(ptr noundef nonnull align 8 dereferenceable(40) %10, i1 noundef zeroext true)
          to label %17 unwind label %23

17:                                               ; preds = %16
  %18 = call i32 @_ZN2QtorENS_13AlignmentFlagES0_(i32 noundef 1, i32 noundef 128) #9
  %19 = getelementptr inbounds %class.QFlags, ptr %9, i32 0, i32 0
  store i32 %18, ptr %19, align 4
  %20 = getelementptr inbounds %class.QFlags, ptr %9, i32 0, i32 0
  %21 = load i32, ptr %20, align 4
  invoke void @_ZN11QHeaderView19setDefaultAlignmentE6QFlagsIN2Qt13AlignmentFlagEE(ptr noundef nonnull align 8 dereferenceable(40) %10, i32 %21)
          to label %22 unwind label %23

22:                                               ; preds = %17
  ret void

23:                                               ; preds = %17, %16, %15, %3
  %24 = landingpad { ptr, i32 }
          cleanup
  %25 = extractvalue { ptr, i32 } %24, 0
  store ptr %25, ptr %7, align 8
  %26 = extractvalue { ptr, i32 } %24, 1
  store i32 %26, ptr %8, align 4
  call void @_ZN11QHeaderViewD2Ev(ptr noundef nonnull align 8 dereferenceable(40) %10) #9
  br label %27

27:                                               ; preds = %23
  %28 = load ptr, ptr %7, align 8
  %29 = load i32, ptr %8, align 4
  %30 = insertvalue { ptr, i32 } poison, ptr %28, 0
  %31 = insertvalue { ptr, i32 } %30, i32 %29, 1
  resume { ptr, i32 } %31
}